target datalayout = "e-m:e-p270:32:32-p271:32:32-p272:64:64-i64:64-i128:128-f80:128-n8:16:32:64-S128"
target triple = "x86_64-pc-linux-gnu"

%class.QString = type { %struct.QArrayDataPointer.0 }
%struct.QArrayDataPointer.0 = type { ptr, ptr, i64 }
%class.LteMacStatisticsDialog = type <{ %class.TapParameterDialog, ptr, ptr, ptr, ptr, ptr, %class.QString, %struct.mac_3gpp_common_stats, i8, [7 x i8] }>
%class.TapParameterDialog = type { %class.WiresharkDialog.base, ptr, %class.QMenu, %class.QList.5, i32, ptr }
%class.WiresharkDialog.base = type <{ %class.GeometryStateDialog, ptr, i8, [7 x i8], %class.QString, %class.QList.1, i32, i8 }>
%class.GeometryStateDialog = type { %class.QDialog, %class.QString }
%class.QDialog = type { %class.QWidget }
%class.QWidget = type { %class.QObject, %class.QPaintDevice.base, ptr }
%class.QObject = type { ptr, %class.QScopedPointer }
%class.QScopedPointer = type { ptr }
%class.QPaintDevice.base = type <{ ptr, i16 }>
%class.QList.1 = type { %struct.QArrayDataPointer.4 }
%struct.QArrayDataPointer.4 = type { ptr, ptr, i64 }
%class.QMenu = type { %class.QWidget }
%class.QList.5 = type { %struct.QArrayDataPointer.8 }
%struct.QArrayDataPointer.8 = type { ptr, ptr, i64 }
%struct.mac_3gpp_common_stats = type { i32, i32, i32, i32, i32, i32, i32, i32, i32, i16, i16 }
%struct.mac_3gpp_tap_info = type { i8, i16, i16, i8, i8, i32, i32, i8, i8, i16, %struct.nstime_t, i32, [33 x i32], [33 x i32], i8, i8, i16, i16 }
%struct.nstime_t = type { i64, i32 }

; Function Attrs: mustprogress nounwind uwtable
define void @_ZN22LteMacStatisticsDialog17updateCommonStatsEPK17mac_3gpp_tap_info(ptr noundef nonnull align 8 dereferenceable(329) %0, ptr noundef %1) #2 align 2 {
  %3 = alloca ptr, align 8
  %4 = alloca ptr, align 8
  store ptr %0, ptr %3, align 8
  store ptr %1, ptr %4, align 8
  %5 = load ptr, ptr %3, align 8
  %6 = getelementptr inbounds %class.LteMacStatisticsDialog, ptr %5, i32 0, i32 7
  %7 = getelementptr inbounds %struct.mac_3gpp_common_stats, ptr %6, i32 0, i32 0
  %8 = load i32, ptr %7, align 8
  %9 = add i32 %8, 1
  store i32 %9, ptr %7, align 8
  %10 = load ptr, ptr %4, align 8
  %11 = getelementptr inbounds %struct.mac_3gpp_tap_info, ptr %10, i32 0, i32 3
  %12 = load i8, ptr %11, align 2
  %13 = zext i8 %12 to i32
  switch i32 %13, label %69 [
    i32 1, label %14
    i32 4, label %35
    i32 0, label %48
    i32 2, label %54
    i32 3, label %68
    i32 5, label %68
  ]

14:                                               ; preds = %2
  %15 = getelementptr inbounds %class.LteMacStatisticsDialog, ptr %5, i32 0, i32 7
  %16 = getelementptr inbounds %struct.mac_3gpp_common_stats, ptr %15, i32 0, i32 4
  %17 = load i32, ptr %16, align 8
  %18 = add i32 %17, 1
  store i32 %18, ptr %16, align 8
  %19 = load ptr, ptr %4, align 8
  %20 = getelementptr inbounds %struct.mac_3gpp_tap_info, ptr %19, i32 0, i32 11
  %21 = load i32, ptr %20, align 8
  %22 = getelementptr inbounds %class.LteMacStatisticsDialog, ptr %5, i32 0, i32 7
  %23 = getelementptr inbounds %struct.mac_3gpp_common_stats, ptr %22, i32 0, i32 5
  %24 = load i32, ptr %23, align 4
  %25 = add i32 %24, %21
  store i32 %25, ptr %23, align 4
  %26 = load ptr, ptr %4, align 8
  %27 = getelementptr inbounds %struct.mac_3gpp_tap_info, ptr %26, i32 0, i32 15
  %28 = load i8, ptr %27, align 1
  %29 = zext i8 %28 to i32
  %30 = getelementptr inbounds %class.LteMacStatisticsDialog, ptr %5, i32 0, i32 7
  %31 = getelementptr inbounds %struct.mac_3gpp_common_stats, ptr %30, i32 0, i32 6
  %32 = load i32, ptr %31, align 8
  %33 = add i32 %32, %29
  store i32 %33, ptr %31, align 8
  %34 = getelementptr inbounds %class.LteMacStatisticsDialog, ptr %5, i32 0, i32 8
  store i8 0, ptr %34, align 8
  br label %70

35:                                               ; preds = %2
  %36 = getelementptr inbounds %class.LteMacStatisticsDialog, ptr %5, i32 0, i32 7
  %37 = getelementptr inbounds %struct.mac_3gpp_common_stats, ptr %36, i32 0, i32 2
  %38 = load i32, ptr %37, align 8
  %39 = add i32 %38, 1
  store i32 %39, ptr %37, align 8
  %40 = load ptr, ptr %4, align 8
  %41 = getelementptr inbounds %struct.mac_3gpp_tap_info, ptr %40, i32 0, i32 11
  %42 = load i32, ptr %41, align 8
  %43 = getelementptr inbounds %class.LteMacStatisticsDialog, ptr %5, i32 0, i32 7
  %44 = getelementptr inbounds %struct.mac_3gpp_common_stats, ptr %43, i32 0, i32 3
  %45 = load i32, ptr %44, align 4
  %46 = add i32 %45, %42
  store i32 %46, ptr %44, align 4
  %47 = getelementptr inbounds %class.LteMacStatisticsDialog, ptr %5, i32 0, i32 8
  store i8 0, ptr %47, align 8
  br label %70

48:                                               ; preds = %2
  %49 = getelementptr inbounds %class.LteMacStatisticsDialog, ptr %5, i32 0, i32 7
  %50 = getelementptr inbounds %struct.mac_3gpp_common_stats, ptr %49, i32 0, i32 1
  %51 = load i32, ptr %50, align 4
  %52 = add i32 %51, 1
  store i32 %52, ptr %50, align 4
  %53 = getelementptr inbounds %class.LteMacStatisticsDialog, ptr %5, i32 0, i32 8
  store i8 0, ptr %53, align 8
  br label %70

54:                                               ; preds = %2
  %55 = getelementptr inbounds %class.LteMacStatisticsDialog, ptr %5, i32 0, i32 7
  %56 = getelementptr inbounds %struct.mac_3gpp_common_stats, ptr %55, i32 0, i32 7
  %57 = load i32, ptr %56, align 4
  %58 = add i32 %57, 1
  store i32 %58, ptr %56, align 4
  %59 = load ptr, ptr %4, align 8
  %60 = getelementptr inbounds %struct.mac_3gpp_tap_info, ptr %59, i32 0, i32 14
  %61 = load i8, ptr %60, align 4
  %62 = zext i8 %61 to i32
  %63 = getelementptr inbounds %class.LteMacStatisticsDialog, ptr %5, i32 0, i32 7
  %64 = getelementptr inbounds %struct.mac_3gpp_common_stats, ptr %63, i32 0, i32 8
  %65 = load i32, ptr %64, align 8
  %66 = add i32 %65, %62
  store i32 %66, ptr %64, align 8
  %67 = getelementptr inbounds %class.LteMacStatisticsDialog, ptr %5, i32 0, i32 8
  store i8 0, ptr %67, align 8
  br label %70

68:                                               ; preds = %2, %2
  br label %70

69:                                               ; preds = %2
  br label %111

70:                                               ; preds = %68, %54, %48, %35, %14
  %71 = load ptr, ptr %4, align 8
  %72 = getelementptr inbounds %struct.mac_3gpp_tap_info, ptr %71, i32 0, i32 7
  %73 = load i8, ptr %72, align 8
  %74 = zext i8 %73 to i32
  switch i32 %74, label %111 [
    i32 0, label %75
    i32 1, label %93
  ]

75:                                               ; preds = %70
  %76 = load ptr, ptr %4, align 8
  %77 = getelementptr inbounds %struct.mac_3gpp_tap_info, ptr %76, i32 0, i32 9
  %78 = load i16, ptr %77, align 2
  %79 = zext i16 %78 to i32
  %80 = getelementptr inbounds %class.LteMacStatisticsDialog, ptr %5, i32 0, i32 7
  %81 = getelementptr inbounds %struct.mac_3gpp_common_stats, ptr %80, i32 0, i32 9
  %82 = load i16, ptr %81, align 4
  %83 = zext i16 %82 to i32
  %84 = icmp sgt i32 %79, %83
  br i1 %84, label %85, label %92

85:                                               ; preds = %75
  %86 = load ptr, ptr %4, align 8
  %87 = getelementptr inbounds %struct.mac_3gpp_tap_info, ptr %86, i32 0, i32 9
  %88 = load i16, ptr %87, align 2
  %89 = getelementptr inbounds %class.LteMacStatisticsDialog, ptr %5, i32 0, i32 7
  %90 = getelementptr inbounds %struct.mac_3gpp_common_stats, ptr %89, i32 0, i32 9
  store i16 %88, ptr %90, align 4
  %91 = getelementptr inbounds %class.LteMacStatisticsDialog, ptr %5, i32 0, i32 8
  store i8 0, ptr %91, align 8
  br label %92

92:                                               ; preds = %85, %75
  br label %111

93:                                               ; preds = %70
  %94 = load ptr, ptr %4, align 8
  %95 = getelementptr inbounds %struct.mac_3gpp_tap_info, ptr %94, i32 0, i32 9
  %96 = load i16, ptr %95, align 2
  %97 = zext i16 %96 to i32
  %98 = getelementptr inbounds %class.LteMacStatisticsDialog, ptr %5, i32 0, i32 7
  %99 = getelementptr inbounds %struct.mac_3gpp_common_stats, ptr %98, i32 0, i32 10
  %100 = load i16, ptr %99, align 2
  %101 = zext i16 %100 to i32
  %102 = icmp sgt i32 %97, %101
  br i1 %102, label %103, label %110

103:                                              ; preds = %93
  %104 = load ptr, ptr %4, align 8
  %105 = getelementptr inbounds %struct.mac_3gpp_tap_info, ptr %104, i32 0, i32 9
  %106 = load i16, ptr %105, align 2
  %107 = getelementptr inbounds %class.LteMacStatisticsDialog, ptr %5, i32 0, i32 7
  %108 = getelementptr inbounds %struct.mac_3gpp_common_stats, ptr %107, i32 0, i32 10
  store i16 %106, ptr %108, align 2
  %109 = getelementptr inbounds %class.LteMacStatisticsDialog, ptr %5, i32 0, i32 8
  store i8 0, ptr %109, align 8
  br label %110

110:                                              ; preds = %103, %93
  br label %111

111:                                              ; preds = %110, %92, %70, %69
  ret void
}