; Function Attrs: mustprogress nofree norecurse nosync nounwind willreturn memory(argmem: readwrite) uwtable
define void @_ZN22LteMacStatisticsDialog17updateCommonStatsEPK17mac_3gpp_tap_info(ptr nocapture noundef nonnull align 8 dereferenceable(329) %0, ptr nocapture noundef readonly %1) local_unnamed_addr #10 align 2 {
  %3 = getelementptr inbounds i8, ptr %0, i64 288
  %4 = load i32, ptr %3, align 8
  %5 = add i32 %4, 1
  store i32 %5, ptr %3, align 8
  %6 = getelementptr inbounds i8, ptr %1, i64 6
  %7 = load i8, ptr %6, align 2
  switch i8 %7, label %65 [
    i8 1, label %8
    i8 4, label %23
    i8 0, label %32
    i8 2, label %36
    i8 3, label %47
    i8 5, label %47
  ]

8:                                                ; preds = %2
  %9 = getelementptr inbounds i8, ptr %0, i64 304
  %10 = load i32, ptr %9, align 8
  %11 = add i32 %10, 1
  store i32 %11, ptr %9, align 8
  %12 = getelementptr inbounds i8, ptr %1, i64 40
  %13 = load i32, ptr %12, align 8
  %14 = getelementptr inbounds i8, ptr %0, i64 308
  %15 = load i32, ptr %14, align 4
  %16 = add i32 %15, %13
  store i32 %16, ptr %14, align 4
  %17 = getelementptr inbounds i8, ptr %1, i64 309
  %18 = load i8, ptr %17, align 1
  %19 = zext i8 %18 to i32
  %20 = getelementptr inbounds i8, ptr %0, i64 312
  %21 = load i32, ptr %20, align 8
  %22 = add i32 %21, %19
  store i32 %22, ptr %20, align 8
  br label %.sink.split

23:                                               ; preds = %2
  %24 = getelementptr inbounds i8, ptr %0, i64 296
  %25 = load i32, ptr %24, align 8
  %26 = add i32 %25, 1
  store i32 %26, ptr %24, align 8
  %27 = getelementptr inbounds i8, ptr %1, i64 40
  %28 = load i32, ptr %27, align 8
  %29 = getelementptr inbounds i8, ptr %0, i64 300
  %30 = load i32, ptr %29, align 4
  %31 = add i32 %30, %28
  store i32 %31, ptr %29, align 4
  br label %.sink.split

32:                                               ; preds = %2
  %33 = getelementptr inbounds i8, ptr %0, i64 292
  %34 = load i32, ptr %33, align 4
  %35 = add i32 %34, 1
  store i32 %35, ptr %33, align 4
  br label %.sink.split

36:                                               ; preds = %2
  %37 = getelementptr inbounds i8, ptr %0, i64 316
  %38 = load i32, ptr %37, align 4
  %39 = add i32 %38, 1
  store i32 %39, ptr %37, align 4
  %40 = getelementptr inbounds i8, ptr %1, i64 308
  %41 = load i8, ptr %40, align 4
  %42 = zext i8 %41 to i32
  %43 = getelementptr inbounds i8, ptr %0, i64 320
  %44 = load i32, ptr %43, align 8
  %45 = add i32 %44, %42
  store i32 %45, ptr %43, align 8
  br label %.sink.split

.sink.split:                                      ; preds = %8, %23, %32, %36
  %46 = getelementptr inbounds i8, ptr %0, i64 328
  store i8 0, ptr %46, align 8
  br label %47

47:                                               ; preds = %.sink.split, %2, %2
  %48 = getelementptr inbounds i8, ptr %1, i64 16
  %49 = load i8, ptr %48, align 8
  switch i8 %49, label %65 [
    i8 0, label %50
    i8 1, label %57
  ]

50:                                               ; preds = %47
  %51 = getelementptr inbounds i8, ptr %1, i64 18
  %52 = load i16, ptr %51, align 2
  %53 = getelementptr inbounds i8, ptr %0, i64 324
  %54 = load i16, ptr %53, align 4
  %55 = icmp ugt i16 %52, %54
  br i1 %55, label %56, label %65

56:                                               ; preds = %50
  store i16 %52, ptr %53, align 4
  br label %.sink.split11

57:                                               ; preds = %47
  %58 = getelementptr inbounds i8, ptr %1, i64 18
  %59 = load i16, ptr %58, align 2
  %60 = getelementptr inbounds i8, ptr %0, i64 326
  %61 = load i16, ptr %60, align 2
  %62 = icmp ugt i16 %59, %61
  br i1 %62, label %63, label %65

63:                                               ; preds = %57
  store i16 %59, ptr %60, align 2
  br label %.sink.split11

.sink.split11:                                    ; preds = %56, %63
  %64 = getelementptr inbounds i8, ptr %0, i64 328
  store i8 0, ptr %64, align 8
  br label %65

65:                                               ; preds = %.sink.split11, %57, %50, %2, %47
  ret void
}